; Function Attrs: nounwind uwtable
define internal fastcc noundef zeroext i1 @pdo_stmt_do_next_rowset(ptr noundef %0) unnamed_addr #0 {
  %2 = getelementptr inbounds nuw i8, ptr %0, i64 48
  %3 = load ptr, ptr %2, align 8, !tbaa !23
  %.not.i = icmp eq ptr %3, null
  br i1 %.not.i, label %pdo_stmt_reset_columns.exit, label %.preheader.i

.preheader.i:                                     ; preds = %1
  %4 = getelementptr inbounds nuw i8, ptr %0, i64 56
  %5 = load i32, ptr %4, align 8, !tbaa !4
  %6 = icmp sgt i32 %5, 0
  br i1 %6, label %.lr.ph.i, label %._crit_edge.i

.lr.ph.i:                                         ; preds = %.preheader.i, %zend_string_release_ex.exit.i
  %7 = phi i32 [ %20, %zend_string_release_ex.exit.i ], [ %5, %.preheader.i ]
  %indvars.iv.i = phi i64 [ %indvars.iv.next.i, %zend_string_release_ex.exit.i ], [ 0, %.preheader.i ]
  %8 = getelementptr inbounds nuw %struct.pdo_column_data, ptr %3, i64 %indvars.iv.i
  %9 = load ptr, ptr %8, align 8, !tbaa !35
  %.not13.i = icmp eq ptr %9, null
  br i1 %.not13.i, label %zend_string_release_ex.exit.i, label %10

10:                                               ; preds = %.lr.ph.i
  %11 = getelementptr inbounds nuw i8, ptr %9, i64 4
  %12 = load i32, ptr %11, align 4, !tbaa !37
  %13 = and i32 %12, 64
  %.not.i.i = icmp eq i32 %13, 0
  br i1 %.not.i.i, label %14, label %zend_string_release_ex.exit.i

14:                                               ; preds = %10
  %15 = load i32, ptr %9, align 4, !tbaa !38
  %16 = icmp ne i32 %15, 0
  tail call void @llvm.assume(i1 %16)
  %17 = add i32 %15, -1
  store i32 %17, ptr %9, align 4, !tbaa !38
  %18 = icmp eq i32 %17, 0
  br i1 %18, label %19, label %zend_string_release_ex.exit.i

19:                                               ; preds = %14
  tail call void @_efree(ptr noundef nonnull %9) #17
  %.pre.i = load i32, ptr %4, align 8, !tbaa !4
  br label %zend_string_release_ex.exit.i

zend_string_release_ex.exit.i:                    ; preds = %19, %14, %10, %.lr.ph.i
  %20 = phi i32 [ %.pre.i, %19 ], [ %7, %14 ], [ %7, %10 ], [ %7, %.lr.ph.i ]
  %indvars.iv.next.i = add nuw nsw i64 %indvars.iv.i, 1
  %21 = sext i32 %20 to i64
  %22 = icmp slt i64 %indvars.iv.next.i, %21
  br i1 %22, label %.lr.ph.i, label %._crit_edge.loopexit.i

._crit_edge.loopexit.i:                           ; preds = %zend_string_release_ex.exit.i
  %.pre16.i = load ptr, ptr %2, align 8, !tbaa !23
  br label %._crit_edge.i

._crit_edge.i:                                    ; preds = %._crit_edge.loopexit.i, %.preheader.i
  %23 = phi ptr [ %.pre16.i, %._crit_edge.loopexit.i ], [ %3, %.preheader.i ]
  tail call void @_efree(ptr noundef %23) #17
  br label %pdo_stmt_reset_columns.exit

pdo_stmt_reset_columns.exit:                      ; preds = %1, %._crit_edge.i
  store ptr null, ptr %2, align 8, !tbaa !23
  %24 = getelementptr inbounds nuw i8, ptr %0, i64 56
  store i32 0, ptr %24, align 8, !tbaa !4
  %25 = load ptr, ptr %0, align 8, !tbaa !24
  %26 = getelementptr inbounds nuw i8, ptr %25, i64 72
  %27 = load ptr, ptr %26, align 8, !tbaa !146
  %28 = tail call i32 %27(ptr noundef nonnull %0) #17
  %.not = icmp ne i32 %28, 0
  br i1 %.not, label %33, label %29

29:                                               ; preds = %pdo_stmt_reset_columns.exit
  %30 = getelementptr inbounds nuw i8, ptr %0, i64 22
  %31 = load i16, ptr %30, align 2
  %32 = and i16 %31, -2
  store i16 %32, ptr %30, align 2
  br label %35

33:                                               ; preds = %pdo_stmt_reset_columns.exit
  %34 = tail call zeroext i1 @pdo_stmt_describe_columns(ptr noundef nonnull %0)
  br label %35

35:                                               ; preds = %33, %29
  ret i1 %.not
}